target datalayout = "e-m:e-p270:32:32-p271:32:32-p272:64:64-i64:64-i128:128-f80:128-n8:16:32:64-S128"
target triple = "x86_64-pc-linux-gnu"

%"class.gmx::MttkData" = type { %"class.gmx::ICheckpointHelperClient", float, float, float, double, double, double, float, [3 x [3 x float]], float, float, float, ptr, ptr, %"class.std::__cxx11::basic_string" }
%"class.gmx::ICheckpointHelperClient" = type { ptr }
%"class.std::__cxx11::basic_string" = type { %"struct.std::__cxx11::basic_string<char>::_Alloc_hider", i64, %union.anon }
%"struct.std::__cxx11::basic_string<char>::_Alloc_hider" = type { ptr }
%union.anon = type { i64, [8 x i8] }
%"class.std::_Function_base" = type { %"union.std::_Any_data", ptr }
%"union.std::_Any_data" = type { %"union.std::_Nocopy_types" }
%"union.std::_Nocopy_types" = type { { i64, i64 } }
%"class.gmx::MttkPropagatorConnection" = type { %"class.std::vector.334", %"class.std::vector.334", %"class.std::vector.334", %"class.std::vector.334", %"class.std::vector.339" }
%"class.std::vector.334" = type { %"struct.std::_Vector_base.335" }
%"struct.std::_Vector_base.335" = type { %"struct.std::_Vector_base<gmx::ArrayRef<float>, std::allocator<gmx::ArrayRef<float>>>::_Vector_impl" }
%"struct.std::_Vector_base<gmx::ArrayRef<float>, std::allocator<gmx::ArrayRef<float>>>::_Vector_impl" = type { %"struct.std::_Vector_base<gmx::ArrayRef<float>, std::allocator<gmx::ArrayRef<float>>>::_Vector_impl_data" }
%"struct.std::_Vector_base<gmx::ArrayRef<float>, std::allocator<gmx::ArrayRef<float>>>::_Vector_impl_data" = type { ptr, ptr, ptr }
%"class.std::vector.339" = type { %"struct.std::_Vector_base.340" }
%"struct.std::_Vector_base.340" = type { %"struct.std::_Vector_base<std::tuple<std::function<void (long)>, int>, std::allocator<std::tuple<std::function<void (long)>, int>>>::_Vector_impl" }
%"struct.std::_Vector_base<std::tuple<std::function<void (long)>, int>, std::allocator<std::tuple<std::function<void (long)>, int>>>::_Vector_impl" = type { %"struct.std::_Vector_base<std::tuple<std::function<void (long)>, int>, std::allocator<std::tuple<std::function<void (long)>, int>>>::_Vector_impl_data" }
%"struct.std::_Vector_base<std::tuple<std::function<void (long)>, int>, std::allocator<std::tuple<std::function<void (long)>, int>>>::_Vector_impl_data" = type { ptr, ptr, ptr }
%"class.__gnu_cxx::__normal_iterator.345" = type { ptr }
%"class.std::tuple.346" = type { %"struct.std::_Tuple_impl.347" }
%"struct.std::_Tuple_impl.347" = type { %"struct.std::_Tuple_impl.348", %"struct.std::_Head_base.350" }
%"struct.std::_Tuple_impl.348" = type { %"struct.std::_Head_base.349" }
%"struct.std::_Head_base.349" = type { i32 }
%"struct.std::_Head_base.350" = type { %"class.std::function.351" }
%"class.std::function.351" = type { %"class.std::_Function_base", ptr }

; Function Attrs: mustprogress nounwind uwtable
define linkonce_odr noundef nonnull align 4 dereferenceable(4) ptr @_ZNSt10_Head_baseILm1EiLb0EE7_M_headERKS0_(ptr noundef nonnull align 4 dereferenceable(4) %0) #2 comdat align 2 {
  %2 = alloca ptr, align 8
  store ptr %0, ptr %2, align 8, !tbaa !951
  %3 = load ptr, ptr %2, align 8, !tbaa !951
  %4 = getelementptr inbounds nuw %"struct.std::_Head_base.349", ptr %3, i32 0, i32 0
  ret ptr %4
}

; Function Attrs: mustprogress nounwind uwtable
define linkonce_odr noundef nonnull align 8 dereferenceable(32) ptr @_ZNSt10_Head_baseILm0ESt8functionIFvlEELb0EE7_M_headERKS3_(ptr noundef nonnull align 8 dereferenceable(32) %0) #2 comdat align 2 {
  %2 = alloca ptr, align 8
  store ptr %0, ptr %2, align 8, !tbaa !385
  %3 = load ptr, ptr %2, align 8, !tbaa !385
  %4 = getelementptr inbounds nuw %"struct.std::_Head_base.350", ptr %3, i32 0, i32 0
  ret ptr %4
}

; Function Attrs: mustprogress nounwind uwtable
define linkonce_odr noundef nonnull align 4 dereferenceable(4) ptr @_ZNSt11_Tuple_implILm1EJiEE7_M_headERKS0_(ptr noundef nonnull align 4 dereferenceable(4) %0) #2 comdat align 2 {
  %2 = alloca ptr, align 8
  store ptr %0, ptr %2, align 8, !tbaa !949
  %3 = load ptr, ptr %2, align 8, !tbaa !949
  %4 = call noundef nonnull align 4 dereferenceable(4) ptr @_ZNSt10_Head_baseILm1EiLb0EE7_M_headERKS0_(ptr noundef nonnull align 4 dereferenceable(4) %3) #21
  ret ptr %4
}

; Function Attrs: mustprogress nounwind uwtable
define linkonce_odr noundef nonnull align 8 dereferenceable(32) ptr @_ZNSt11_Tuple_implILm0EJSt8functionIFvlEEiEE7_M_headERKS3_(ptr noundef nonnull align 8 dereferenceable(40) %0) #2 comdat align 2 {
  %2 = alloca ptr, align 8
  store ptr %0, ptr %2, align 8, !tbaa !383
  %3 = load ptr, ptr %2, align 8, !tbaa !383
  %4 = getelementptr inbounds i8, ptr %3, i64 8
  %5 = call noundef nonnull align 8 dereferenceable(32) ptr @_ZNSt10_Head_baseILm0ESt8functionIFvlEELb0EE7_M_headERKS3_(ptr noundef nonnull align 8 dereferenceable(32) %4) #21
  ret ptr %5
}

; Function Attrs: mustprogress nounwind uwtable
define linkonce_odr noundef zeroext i1 @_ZNKSt14_Function_base8_M_emptyEv(ptr noundef nonnull align 8 dereferenceable(24) %0) #2 comdat align 2 {
  %2 = alloca ptr, align 8
  store ptr %0, ptr %2, align 8, !tbaa !391
  %3 = load ptr, ptr %2, align 8
  %4 = getelementptr inbounds nuw %"class.std::_Function_base", ptr %3, i32 0, i32 1
  %5 = load ptr, ptr %4, align 8, !tbaa !257
  %6 = icmp ne ptr %5, null
  %7 = xor i1 %6, true
  ret i1 %7
}

; Function Attrs: mustprogress nounwind uwtable
define linkonce_odr noundef nonnull align 4 dereferenceable(4) ptr @_ZSt12__get_helperILm1EiJEERKT0_RKSt11_Tuple_implIXT_EJS0_DpT1_EE(ptr noundef nonnull align 4 dereferenceable(4) %0) #2 comdat {
  %2 = alloca ptr, align 8
  store ptr %0, ptr %2, align 8, !tbaa !949
  %3 = load ptr, ptr %2, align 8, !tbaa !949
  %4 = call noundef nonnull align 4 dereferenceable(4) ptr @_ZNSt11_Tuple_implILm1EJiEE7_M_headERKS0_(ptr noundef nonnull align 4 dereferenceable(4) %3) #21
  ret ptr %4
}

; Function Attrs: mustprogress nounwind uwtable
define linkonce_odr noundef nonnull align 8 dereferenceable(32) ptr @_ZSt12__get_helperILm0ESt8functionIFvlEEJiEERKT0_RKSt11_Tuple_implIXT_EJS3_DpT1_EE(ptr noundef nonnull align 8 dereferenceable(40) %0) #2 comdat {
  %2 = alloca ptr, align 8
  store ptr %0, ptr %2, align 8, !tbaa !383
  %3 = load ptr, ptr %2, align 8, !tbaa !383
  %4 = call noundef nonnull align 8 dereferenceable(32) ptr @_ZNSt11_Tuple_implILm0EJSt8functionIFvlEEiEE7_M_headERKS3_(ptr noundef nonnull align 8 dereferenceable(40) %3) #21
  ret ptr %4
}

; Function Attrs: mustprogress nounwind uwtable
define linkonce_odr noundef nonnull align 8 dereferenceable(8) ptr @_ZNK9__gnu_cxx17__normal_iteratorIPKSt5tupleIJSt8functionIFvlEEiEESt6vectorIS5_SaIS5_EEE4baseEv(ptr noundef nonnull align 8 dereferenceable(8) %0) #2 comdat align 2 {
  %2 = alloca ptr, align 8
  store ptr %0, ptr %2, align 8, !tbaa !379
  %3 = load ptr, ptr %2, align 8
  %4 = getelementptr inbounds nuw %"class.__gnu_cxx::__normal_iterator.345", ptr %3, i32 0, i32 0
  ret ptr %4
}

; Function Attrs: mustprogress nounwind uwtable
define linkonce_odr void @_ZN9__gnu_cxx17__normal_iteratorIPKSt5tupleIJSt8functionIFvlEEiEESt6vectorIS5_SaIS5_EEEC2ERKS7_(ptr noundef nonnull align 8 dereferenceable(8) %0, ptr noundef nonnull align 8 dereferenceable(8) %1) unnamed_addr #2 comdat align 2 {
  %3 = alloca ptr, align 8
  %4 = alloca ptr, align 8
  store ptr %0, ptr %3, align 8, !tbaa !379
  store ptr %1, ptr %4, align 8, !tbaa !394
  %5 = load ptr, ptr %3, align 8
  %6 = getelementptr inbounds nuw %"class.__gnu_cxx::__normal_iterator.345", ptr %5, i32 0, i32 0
  %7 = load ptr, ptr %4, align 8, !tbaa !394
  %8 = load ptr, ptr %7, align 8, !tbaa !371
  store ptr %8, ptr %6, align 8, !tbaa !381
  ret void
}

; Function Attrs: mustprogress nounwind uwtable
define linkonce_odr noundef nonnull align 8 dereferenceable(8) ptr @_ZN9__gnu_cxx17__normal_iteratorIPKSt5tupleIJSt8functionIFvlEEiEESt6vectorIS5_SaIS5_EEEppEv(ptr noundef nonnull align 8 dereferenceable(8) %0) #2 comdat align 2 {
  %2 = alloca ptr, align 8
  store ptr %0, ptr %2, align 8, !tbaa !379
  %3 = load ptr, ptr %2, align 8
  %4 = getelementptr inbounds nuw %"class.__gnu_cxx::__normal_iterator.345", ptr %3, i32 0, i32 0
  %5 = load ptr, ptr %4, align 8, !tbaa !381
  %6 = getelementptr inbounds nuw %"class.std::tuple.346", ptr %5, i32 1
  store ptr %6, ptr %4, align 8, !tbaa !381
  ret ptr %3
}

; Function Attrs: mustprogress uwtable
define linkonce_odr void @_ZNKSt8functionIFvlEEclEl(ptr noundef nonnull align 8 dereferenceable(32) %0, i64 noundef %1) #1 comdat align 2 {
  %3 = alloca ptr, align 8
  %4 = alloca i64, align 8
  store ptr %0, ptr %3, align 8, !tbaa !387
  store i64 %1, ptr %4, align 8, !tbaa !35
  %5 = load ptr, ptr %3, align 8
  %6 = call noundef zeroext i1 @_ZNKSt14_Function_base8_M_emptyEv(ptr noundef nonnull align 8 dereferenceable(24) %5)
  br i1 %6, label %7, label %8

7:                                                ; preds = %2
  call void @_ZSt25__throw_bad_function_callv() #23
  unreachable

8:                                                ; preds = %2
  %9 = getelementptr inbounds nuw %"class.std::function.351", ptr %5, i32 0, i32 1
  %10 = load ptr, ptr %9, align 8, !tbaa !389
  %11 = getelementptr inbounds nuw %"class.std::_Function_base", ptr %5, i32 0, i32 0
  call void %10(ptr noundef nonnull align 8 dereferenceable(16) %11, ptr noundef nonnull align 8 dereferenceable(8) %4)
  ret void
}

; Function Attrs: mustprogress nounwind uwtable
define linkonce_odr noundef nonnull align 4 dereferenceable(4) ptr @_ZSt3getILm1EJSt8functionIFvlEEiEERKNSt13tuple_elementIXT_ESt5tupleIJDpT0_EEE4typeERKS7_(ptr noundef nonnull align 8 dereferenceable(40) %0) #2 comdat {
  %2 = alloca ptr, align 8
  store ptr %0, ptr %2, align 8, !tbaa !371
  %3 = load ptr, ptr %2, align 8, !tbaa !371
  %4 = call noundef nonnull align 4 dereferenceable(4) ptr @_ZSt12__get_helperILm1EiJEERKT0_RKSt11_Tuple_implIXT_EJS0_DpT1_EE(ptr noundef nonnull align 4 dereferenceable(4) %3) #21
  ret ptr %4
}

; Function Attrs: mustprogress nounwind uwtable
define linkonce_odr noundef nonnull align 8 dereferenceable(32) ptr @_ZSt3getILm0EJSt8functionIFvlEEiEERKNSt13tuple_elementIXT_ESt5tupleIJDpT0_EEE4typeERKS7_(ptr noundef nonnull align 8 dereferenceable(40) %0) #2 comdat {
  %2 = alloca ptr, align 8
  store ptr %0, ptr %2, align 8, !tbaa !371
  %3 = load ptr, ptr %2, align 8, !tbaa !371
  %4 = call noundef nonnull align 8 dereferenceable(32) ptr @_ZSt12__get_helperILm0ESt8functionIFvlEEJiEERKT0_RKSt11_Tuple_implIXT_EJS3_DpT1_EE(ptr noundef nonnull align 8 dereferenceable(40) %3) #21
  ret ptr %4
}

; Function Attrs: mustprogress nounwind uwtable
define linkonce_odr noundef nonnull align 8 dereferenceable(40) ptr @_ZNK9__gnu_cxx17__normal_iteratorIPKSt5tupleIJSt8functionIFvlEEiEESt6vectorIS5_SaIS5_EEEdeEv(ptr noundef nonnull align 8 dereferenceable(8) %0) #2 comdat align 2 {
  %2 = alloca ptr, align 8
  store ptr %0, ptr %2, align 8, !tbaa !379
  %3 = load ptr, ptr %2, align 8
  %4 = getelementptr inbounds nuw %"class.__gnu_cxx::__normal_iterator.345", ptr %3, i32 0, i32 0
  %5 = load ptr, ptr %4, align 8, !tbaa !381
  ret ptr %5
}

; Function Attrs: inlinehint mustprogress nounwind uwtable
define linkonce_odr noundef zeroext i1 @_ZN9__gnu_cxxneIPKSt5tupleIJSt8functionIFvlEEiEESt6vectorIS5_SaIS5_EEEEbRKNS_17__normal_iteratorIT_T0_EESG_(ptr noundef nonnull align 8 dereferenceable(8) %0, ptr noundef nonnull align 8 dereferenceable(8) %1) #0 comdat {
  %3 = alloca ptr, align 8
  %4 = alloca ptr, align 8
  store ptr %0, ptr %3, align 8, !tbaa !379
  store ptr %1, ptr %4, align 8, !tbaa !379
  %5 = load ptr, ptr %3, align 8, !tbaa !379
  %6 = call noundef nonnull align 8 dereferenceable(8) ptr @_ZNK9__gnu_cxx17__normal_iteratorIPKSt5tupleIJSt8functionIFvlEEiEESt6vectorIS5_SaIS5_EEE4baseEv(ptr noundef nonnull align 8 dereferenceable(8) %5) #21
  %7 = load ptr, ptr %6, align 8, !tbaa !371
  %8 = load ptr, ptr %4, align 8, !tbaa !379
  %9 = call noundef nonnull align 8 dereferenceable(8) ptr @_ZNK9__gnu_cxx17__normal_iteratorIPKSt5tupleIJSt8functionIFvlEEiEESt6vectorIS5_SaIS5_EEE4baseEv(ptr noundef nonnull align 8 dereferenceable(8) %8) #21
  %10 = load ptr, ptr %9, align 8, !tbaa !371
  %11 = icmp ne ptr %7, %10
  ret i1 %11
}

; Function Attrs: mustprogress nounwind uwtable
define linkonce_odr ptr @_ZNKSt6vectorISt5tupleIJSt8functionIFvlEEiEESaIS4_EE3endEv(ptr noundef nonnull align 8 dereferenceable(24) %0) #2 comdat align 2 {
  %2 = alloca %"class.__gnu_cxx::__normal_iterator.345", align 8
  %3 = alloca ptr, align 8
  store ptr %0, ptr %3, align 8, !tbaa !338
  %4 = load ptr, ptr %3, align 8
  %5 = getelementptr inbounds nuw %"struct.std::_Vector_base.340", ptr %4, i32 0, i32 0
  %6 = getelementptr inbounds nuw %"struct.std::_Vector_base<std::tuple<std::function<void (long)>, int>, std::allocator<std::tuple<std::function<void (long)>, int>>>::_Vector_impl_data", ptr %5, i32 0, i32 1
  call void @_ZN9__gnu_cxx17__normal_iteratorIPKSt5tupleIJSt8functionIFvlEEiEESt6vectorIS5_SaIS5_EEEC2ERKS7_(ptr noundef nonnull align 8 dereferenceable(8) %2, ptr noundef nonnull align 8 dereferenceable(8) %6) #21
  %7 = getelementptr inbounds nuw %"class.__gnu_cxx::__normal_iterator.345", ptr %2, i32 0, i32 0
  %8 = load ptr, ptr %7, align 8
  ret ptr %8
}

; Function Attrs: mustprogress nounwind uwtable
define linkonce_odr ptr @_ZNKSt6vectorISt5tupleIJSt8functionIFvlEEiEESaIS4_EE5beginEv(ptr noundef nonnull align 8 dereferenceable(24) %0) #2 comdat align 2 {
  %2 = alloca %"class.__gnu_cxx::__normal_iterator.345", align 8
  %3 = alloca ptr, align 8
  store ptr %0, ptr %3, align 8, !tbaa !338
  %4 = load ptr, ptr %3, align 8
  %5 = getelementptr inbounds nuw %"struct.std::_Vector_base.340", ptr %4, i32 0, i32 0
  %6 = getelementptr inbounds nuw %"struct.std::_Vector_base<std::tuple<std::function<void (long)>, int>, std::allocator<std::tuple<std::function<void (long)>, int>>>::_Vector_impl_data", ptr %5, i32 0, i32 0
  call void @_ZN9__gnu_cxx17__normal_iteratorIPKSt5tupleIJSt8functionIFvlEEiEESt6vectorIS5_SaIS5_EEEC2ERKS7_(ptr noundef nonnull align 8 dereferenceable(8) %2, ptr noundef nonnull align 8 dereferenceable(8) %6) #21
  %7 = getelementptr inbounds nuw %"class.__gnu_cxx::__normal_iterator.345", ptr %2, i32 0, i32 0
  %8 = load ptr, ptr %7, align 8
  ret ptr %8
}

; Function Attrs: mustprogress uwtable
define void @_ZNK3gmx24MttkPropagatorConnection18propagatorCallbackEl(ptr noundef nonnull align 8 dereferenceable(120) %0, i64 noundef %1) #1 align 2 {
  %3 = alloca ptr, align 8
  %4 = alloca i64, align 8
  %5 = alloca ptr, align 8
  %6 = alloca %"class.__gnu_cxx::__normal_iterator.345", align 8
  %7 = alloca %"class.__gnu_cxx::__normal_iterator.345", align 8
  %8 = alloca ptr, align 8
  store ptr %0, ptr %3, align 8, !tbaa !115
  store i64 %1, ptr %4, align 8, !tbaa !35
  %9 = load ptr, ptr %3, align 8
  call void @llvm.lifetime.start.p0(i64 8, ptr %5) #21
  %10 = getelementptr inbounds nuw %"class.gmx::MttkPropagatorConnection", ptr %9, i32 0, i32 4
  store ptr %10, ptr %5, align 8, !tbaa !338
  call void @llvm.lifetime.start.p0(i64 8, ptr %6) #21
  %11 = load ptr, ptr %5, align 8, !tbaa !338
  %12 = call ptr @_ZNKSt6vectorISt5tupleIJSt8functionIFvlEEiEESaIS4_EE5beginEv(ptr noundef nonnull align 8 dereferenceable(24) %11) #21
  %13 = getelementptr inbounds nuw %"class.__gnu_cxx::__normal_iterator.345", ptr %6, i32 0, i32 0
  store ptr %12, ptr %13, align 8
  call void @llvm.lifetime.start.p0(i64 8, ptr %7) #21
  %14 = load ptr, ptr %5, align 8, !tbaa !338
  %15 = call ptr @_ZNKSt6vectorISt5tupleIJSt8functionIFvlEEiEESaIS4_EE3endEv(ptr noundef nonnull align 8 dereferenceable(24) %14) #21
  %16 = getelementptr inbounds nuw %"class.__gnu_cxx::__normal_iterator.345", ptr %7, i32 0, i32 0
  store ptr %15, ptr %16, align 8
  br label %17

17:                                               ; preds = %30, %2
  %18 = call noundef zeroext i1 @_ZN9__gnu_cxxneIPKSt5tupleIJSt8functionIFvlEEiEESt6vectorIS5_SaIS5_EEEEbRKNS_17__normal_iteratorIT_T0_EESG_(ptr noundef nonnull align 8 dereferenceable(8) %6, ptr noundef nonnull align 8 dereferenceable(8) %7) #21
  br i1 %18, label %20, label %19

19:                                               ; preds = %17
  call void @llvm.lifetime.end.p0(i64 8, ptr %7) #21
  call void @llvm.lifetime.end.p0(i64 8, ptr %6) #21
  call void @llvm.lifetime.end.p0(i64 8, ptr %5) #21
  br label %32

20:                                               ; preds = %17
  call void @llvm.lifetime.start.p0(i64 8, ptr %8) #21
  %21 = call noundef nonnull align 8 dereferenceable(40) ptr @_ZNK9__gnu_cxx17__normal_iteratorIPKSt5tupleIJSt8functionIFvlEEiEESt6vectorIS5_SaIS5_EEEdeEv(ptr noundef nonnull align 8 dereferenceable(8) %6) #21
  store ptr %21, ptr %8, align 8, !tbaa !371
  %22 = load ptr, ptr %8, align 8, !tbaa !371
  %23 = call noundef nonnull align 8 dereferenceable(32) ptr @_ZSt3getILm0EJSt8functionIFvlEEiEERKNSt13tuple_elementIXT_ESt5tupleIJDpT0_EEE4typeERKS7_(ptr noundef nonnull align 8 dereferenceable(40) %22) #21
  %24 = load i64, ptr %4, align 8, !tbaa !35
  %25 = load ptr, ptr %8, align 8, !tbaa !371
  %26 = call noundef nonnull align 4 dereferenceable(4) ptr @_ZSt3getILm1EJSt8functionIFvlEEiEERKNSt13tuple_elementIXT_ESt5tupleIJDpT0_EEE4typeERKS7_(ptr noundef nonnull align 8 dereferenceable(40) %25) #21
  %27 = load i32, ptr %26, align 4, !tbaa !114
  %28 = sext i32 %27 to i64
  %29 = add nsw i64 %24, %28
  call void @_ZNKSt8functionIFvlEEclEl(ptr noundef nonnull align 8 dereferenceable(32) %23, i64 noundef %29)
  call void @llvm.lifetime.end.p0(i64 8, ptr %8) #21
  br label %30

30:                                               ; preds = %20
  %31 = call noundef nonnull align 8 dereferenceable(8) ptr @_ZN9__gnu_cxx17__normal_iteratorIPKSt5tupleIJSt8functionIFvlEEiEESt6vectorIS5_SaIS5_EEEppEv(ptr noundef nonnull align 8 dereferenceable(8) %6) #21
  br label %17

32:                                               ; preds = %19
  ret void
}

; Function Attrs: mustprogress uwtable
define void @_ZNK3gmx8MttkData18propagatorCallbackEl(ptr noundef nonnull align 8 dereferenceable(152) %0, i64 noundef %1) #1 align 2 {
  %3 = alloca ptr, align 8
  %4 = alloca i64, align 8
  store ptr %0, ptr %3, align 8, !tbaa !4
  store i64 %1, ptr %4, align 8, !tbaa !35
  %5 = load ptr, ptr %3, align 8
  %6 = getelementptr inbounds nuw %"class.gmx::MttkData", ptr %5, i32 0, i32 13
  %7 = load ptr, ptr %6, align 8, !tbaa !720
  %8 = load i64, ptr %4, align 8, !tbaa !35
  call void @_ZNK3gmx24MttkPropagatorConnection18propagatorCallbackEl(ptr noundef nonnull align 8 dereferenceable(120) %7, i64 noundef %8)
  ret void
}