; Function Attrs: mustprogress uwtable
define void @_ZNK3gmx8MttkData18propagatorCallbackEl(ptr noundef nonnull readonly align 8 captures(none) dereferenceable(152) %0, i64 noundef %1) local_unnamed_addr #1 align 2 {
  %3 = alloca i64, align 8
  %4 = getelementptr inbounds nuw i8, ptr %0, i64 112
  %5 = load ptr, ptr %4, align 8, !tbaa !61
  %6 = getelementptr inbounds nuw i8, ptr %5, i64 96
  %7 = load ptr, ptr %6, align 8, !tbaa !66
  %8 = getelementptr inbounds nuw i8, ptr %5, i64 104
  %9 = load ptr, ptr %8, align 8, !tbaa !66
  %.not8.i = icmp eq ptr %7, %9
  br i1 %.not8.i, label %_ZNK3gmx24MttkPropagatorConnection18propagatorCallbackEl.exit, label %.lr.ph.i

.lr.ph.i:                                         ; preds = %2, %_ZNKSt8functionIFvlEEclEl.exit.i
  %.sroa.05.09.i = phi ptr [ %19, %_ZNKSt8functionIFvlEEclEl.exit.i ], [ %7, %2 ]
  %10 = load i32, ptr %.sroa.05.09.i, align 4, !tbaa !68
  %11 = sext i32 %10 to i64
  %12 = add nsw i64 %1, %11
  call void @llvm.lifetime.start.p0(i64 8, ptr nonnull %3)
  store i64 %12, ptr %3, align 8, !tbaa !53
  %13 = getelementptr inbounds nuw i8, ptr %.sroa.05.09.i, i64 24
  %14 = load ptr, ptr %13, align 8, !tbaa !57
  %.not.i.i.i = icmp eq ptr %14, null
  br i1 %.not.i.i.i, label %15, label %_ZNKSt8functionIFvlEEclEl.exit.i

15:                                               ; preds = %.lr.ph.i
  call void @_ZSt25__throw_bad_function_callv() #34
  unreachable

_ZNKSt8functionIFvlEEclEl.exit.i:                 ; preds = %.lr.ph.i
  %16 = getelementptr inbounds nuw i8, ptr %.sroa.05.09.i, i64 8
  %17 = getelementptr inbounds nuw i8, ptr %.sroa.05.09.i, i64 32
  %18 = load ptr, ptr %17, align 8, !tbaa !69
  call void %18(ptr noundef nonnull align 8 dereferenceable(32) %16, ptr noundef nonnull align 8 dereferenceable(8) %3)
  call void @llvm.lifetime.end.p0(i64 8, ptr nonnull %3)
  %19 = getelementptr inbounds nuw i8, ptr %.sroa.05.09.i, i64 40
  %.not.i = icmp eq ptr %19, %9
  br i1 %.not.i, label %_ZNK3gmx24MttkPropagatorConnection18propagatorCallbackEl.exit, label %.lr.ph.i

_ZNK3gmx24MttkPropagatorConnection18propagatorCallbackEl.exit: ; preds = %_ZNKSt8functionIFvlEEclEl.exit.i, %2
  ret void
}